(dp0
Vengine
p1
Vpdflatex
p2
sVpackages
p3
c__builtin__
set
p4
((lp5
Vsiunitx
p6
aVtikz
p7
aVempheq
p8
aVamsmath
p9
aVlatexsym
p10
aVbbm
p11
aVpgfplots
p12
aVlmodern
p13
aVmathrsfs
p14
aVamssymb
p15
atp16
Rp17
sVfiles_with_guttermarks
p18
g4
((lp19
S'reg.tex'
p20
atp21
Rp22
sVsynctex
p23
I01
s.