(dp0
Vengine
p1
Vpdflatex
p2
sVpackages
p3
c__builtin__
set
p4
((lp5
Vetex
p6
aVsiunitx
p7
aVmathrsfs
p8
aVucs
p9
aVfontenc
p10
aVbooktabs
p11
aVamsmath
p12
aVbabel
p13
aVfloat
p14
aVthmtools
p15
aVsoul
p16
aVgeometry
p17
aVinputenc
p18
aVamsthm
p19
aVtabularx
p20
aVm-ch-en
p21
aVm-pictex
p22
aVamsfonts
p23
aVgraphicx
p24
aVchemist
p25
aVamssymb
p26
atp27
Rp28
sVfiles_with_guttermarks
p29
g4
((lp30
S'20190123examDoumicMoireau.tex'
p31
atp32
Rp33
sVsynctex
p34
I01
s.