(dp0
Vengine
p1
S'pdflatex'
p2
sVpackages
p3
c__builtin__
set
p4
((lp5
Vsiunitx
p6
aVmathrsfs
p7
aVthmtools
p8
aVbooktabs
p9
aVamsmath
p10
aVbabel
p11
aVfloat
p12
aVsoul
p13
aVgeometry
p14
aVinputenc
p15
aVamsthm
p16
aVtabularx
p17
aVfontenc
p18
aVamsfonts
p19
aVgraphicx
p20
aVamssymb
p21
atp22
Rp23
sVfiles_with_guttermarks
p24
g4
((lp25
S'20190123examDoumicMoireau.tex'
p26
aV/Users/cdellava/Documents/phd/polymerisation/./20190123examDoumicMoireau.tex
p27
atp28
Rp29
sVsynctex
p30
I01
s.